target datalayout = "e-m:e-p270:32:32-p271:32:32-p272:64:64-i64:64-i128:128-f80:128-n8:16:32:64-S128"
target triple = "x86_64-pc-linux-gnu"

%struct.gough_som_info = type { [1 x i64] }
%struct.gough_accel = type { %union.AccelAux, i8, i32 }
%union.AccelAux = type { %struct.anon.5 }
%struct.anon.5 = type { i8, i8, <2 x i64>, <2 x i64>, <2 x i64>, <2 x i64> }
%struct.gough_ins = type { i32, i32, i32 }

; Function Attrs: alwaysinline nounwind uwtable
define internal void @run_prog_i(ptr noundef %0, ptr noundef %1, i64 noundef %2, ptr noundef %3) #2 {
  %5 = alloca ptr, align 8
  %6 = alloca ptr, align 8
  %7 = alloca i64, align 8
  %8 = alloca ptr, align 8
  %9 = alloca i32, align 4
  %10 = alloca i32, align 4
  %11 = alloca i32, align 4
  store ptr %0, ptr %5, align 8
  store ptr %1, ptr %6, align 8
  store i64 %2, ptr %7, align 8
  store ptr %3, ptr %8, align 8
  br label %12

12:                                               ; preds = %4
  br label %13

13:                                               ; preds = %12
  br label %14

14:                                               ; preds = %13, %129
  call void @llvm.lifetime.start.p0(i64 4, ptr %9) #10
  %15 = load ptr, ptr %6, align 8
  %16 = getelementptr inbounds nuw %struct.gough_ins, ptr %15, i32 0, i32 1
  %17 = load i32, ptr %16, align 4
  store i32 %17, ptr %9, align 4
  call void @llvm.lifetime.start.p0(i64 4, ptr %10) #10
  %18 = load ptr, ptr %6, align 8
  %19 = getelementptr inbounds nuw %struct.gough_ins, ptr %18, i32 0, i32 2
  %20 = load i32, ptr %19, align 4
  store i32 %20, ptr %10, align 4
  br label %21

21:                                               ; preds = %14
  br label %22

22:                                               ; preds = %21
  br label %23

23:                                               ; preds = %22
  %24 = load ptr, ptr %6, align 8
  %25 = getelementptr inbounds nuw %struct.gough_ins, ptr %24, i32 0, i32 0
  %26 = load i32, ptr %25, align 4
  switch i32 %26, label %120 [
    i32 0, label %27
    i32 1, label %28
    i32 2, label %40
    i32 3, label %55
  ]

27:                                               ; preds = %23
  store i32 1, ptr %11, align 4
  br label %127

28:                                               ; preds = %23
  %29 = load ptr, ptr %8, align 8
  %30 = getelementptr inbounds nuw %struct.gough_som_info, ptr %29, i32 0, i32 0
  %31 = load i32, ptr %10, align 4
  %32 = zext i32 %31 to i64
  %33 = getelementptr inbounds nuw [1 x i64], ptr %30, i64 0, i64 %32
  %34 = load i64, ptr %33, align 8
  %35 = load ptr, ptr %8, align 8
  %36 = getelementptr inbounds nuw %struct.gough_som_info, ptr %35, i32 0, i32 0
  %37 = load i32, ptr %9, align 4
  %38 = zext i32 %37 to i64
  %39 = getelementptr inbounds nuw [1 x i64], ptr %36, i64 0, i64 %38
  store i64 %34, ptr %39, align 8
  br label %121

40:                                               ; preds = %23
  br label %41

41:                                               ; preds = %40
  br label %42

42:                                               ; preds = %41
  br label %43

43:                                               ; preds = %42
  %44 = load i64, ptr %7, align 8
  %45 = load ptr, ptr %6, align 8
  %46 = getelementptr inbounds nuw %struct.gough_ins, ptr %45, i32 0, i32 2
  %47 = load i32, ptr %46, align 4
  %48 = zext i32 %47 to i64
  %49 = sub i64 %44, %48
  %50 = load ptr, ptr %8, align 8
  %51 = getelementptr inbounds nuw %struct.gough_som_info, ptr %50, i32 0, i32 0
  %52 = load i32, ptr %9, align 4
  %53 = zext i32 %52 to i64
  %54 = getelementptr inbounds nuw [1 x i64], ptr %51, i64 0, i64 %53
  store i64 %49, ptr %54, align 8
  br label %121

55:                                               ; preds = %23
  %56 = load ptr, ptr %8, align 8
  %57 = getelementptr inbounds nuw %struct.gough_som_info, ptr %56, i32 0, i32 0
  %58 = load i32, ptr %10, align 4
  %59 = zext i32 %58 to i64
  %60 = getelementptr inbounds nuw [1 x i64], ptr %57, i64 0, i64 %59
  %61 = load i64, ptr %60, align 8
  %62 = icmp eq i64 %61, -1
  br i1 %62, label %63, label %75

63:                                               ; preds = %55
  %64 = load ptr, ptr %8, align 8
  %65 = getelementptr inbounds nuw %struct.gough_som_info, ptr %64, i32 0, i32 0
  %66 = load i32, ptr %10, align 4
  %67 = zext i32 %66 to i64
  %68 = getelementptr inbounds nuw [1 x i64], ptr %65, i64 0, i64 %67
  %69 = load i64, ptr %68, align 8
  %70 = load ptr, ptr %8, align 8
  %71 = getelementptr inbounds nuw %struct.gough_som_info, ptr %70, i32 0, i32 0
  %72 = load i32, ptr %9, align 4
  %73 = zext i32 %72 to i64
  %74 = getelementptr inbounds nuw [1 x i64], ptr %71, i64 0, i64 %73
  store i64 %69, ptr %74, align 8
  br label %119

75:                                               ; preds = %55
  %76 = load ptr, ptr %8, align 8
  %77 = getelementptr inbounds nuw %struct.gough_som_info, ptr %76, i32 0, i32 0
  %78 = load i32, ptr %9, align 4
  %79 = zext i32 %78 to i64
  %80 = getelementptr inbounds nuw [1 x i64], ptr %77, i64 0, i64 %79
  %81 = load i64, ptr %80, align 8
  %82 = icmp ne i64 %81, -1
  br i1 %82, label %83, label %118

83:                                               ; preds = %75
  %84 = load ptr, ptr %8, align 8
  %85 = getelementptr inbounds nuw %struct.gough_som_info, ptr %84, i32 0, i32 0
  %86 = load i32, ptr %9, align 4
  %87 = zext i32 %86 to i64
  %88 = getelementptr inbounds nuw [1 x i64], ptr %85, i64 0, i64 %87
  %89 = load i64, ptr %88, align 8
  %90 = load ptr, ptr %8, align 8
  %91 = getelementptr inbounds nuw %struct.gough_som_info, ptr %90, i32 0, i32 0
  %92 = load i32, ptr %10, align 4
  %93 = zext i32 %92 to i64
  %94 = getelementptr inbounds nuw [1 x i64], ptr %91, i64 0, i64 %93
  %95 = load i64, ptr %94, align 8
  %96 = icmp ult i64 %89, %95
  br i1 %96, label %97, label %104

97:                                               ; preds = %83
  %98 = load ptr, ptr %8, align 8
  %99 = getelementptr inbounds nuw %struct.gough_som_info, ptr %98, i32 0, i32 0
  %100 = load i32, ptr %9, align 4
  %101 = zext i32 %100 to i64
  %102 = getelementptr inbounds nuw [1 x i64], ptr %99, i64 0, i64 %101
  %103 = load i64, ptr %102, align 8
  br label %111

104:                                              ; preds = %83
  %105 = load ptr, ptr %8, align 8
  %106 = getelementptr inbounds nuw %struct.gough_som_info, ptr %105, i32 0, i32 0
  %107 = load i32, ptr %10, align 4
  %108 = zext i32 %107 to i64
  %109 = getelementptr inbounds nuw [1 x i64], ptr %106, i64 0, i64 %108
  %110 = load i64, ptr %109, align 8
  br label %111

111:                                              ; preds = %104, %97
  %112 = phi i64 [ %103, %97 ], [ %110, %104 ]
  %113 = load ptr, ptr %8, align 8
  %114 = getelementptr inbounds nuw %struct.gough_som_info, ptr %113, i32 0, i32 0
  %115 = load i32, ptr %9, align 4
  %116 = zext i32 %115 to i64
  %117 = getelementptr inbounds nuw [1 x i64], ptr %114, i64 0, i64 %116
  store i64 %112, ptr %117, align 8
  br label %118

118:                                              ; preds = %111, %75
  br label %119

119:                                              ; preds = %118, %63
  br label %121

120:                                              ; preds = %23
  store i32 1, ptr %11, align 4
  br label %127

121:                                              ; preds = %119, %43, %28
  br label %122

122:                                              ; preds = %121
  br label %123

123:                                              ; preds = %122
  br label %124

124:                                              ; preds = %123
  %125 = load ptr, ptr %6, align 8
  %126 = getelementptr inbounds nuw %struct.gough_ins, ptr %125, i32 1
  store ptr %126, ptr %6, align 8
  store i32 0, ptr %11, align 4
  br label %127

127:                                              ; preds = %124, %120, %27
  call void @llvm.lifetime.end.p0(i64 4, ptr %10) #10
  call void @llvm.lifetime.end.p0(i64 4, ptr %9) #10
  %128 = load i32, ptr %11, align 4
  switch i32 %128, label %131 [
    i32 0, label %129
    i32 1, label %130
  ]

129:                                              ; preds = %127
  br label %14

130:                                              ; preds = %127
  ret void

131:                                              ; preds = %127
  unreachable
}

; Function Attrs: noinline nounwind uwtable
define internal void @run_accel_prog(ptr noundef %0, ptr noundef %1, ptr noundef %2, i64 noundef %3, ptr noundef %4, ptr noundef %5, ptr noundef %6) #5 {
  %8 = alloca ptr, align 8
  %9 = alloca ptr, align 8
  %10 = alloca ptr, align 8
  %11 = alloca i64, align 8
  %12 = alloca ptr, align 8
  %13 = alloca ptr, align 8
  %14 = alloca ptr, align 8
  %15 = alloca ptr, align 8
  %16 = alloca i64, align 8
  %17 = alloca i64, align 8
  %18 = alloca i64, align 8
  %19 = alloca i64, align 8
  %20 = alloca i64, align 8
  store ptr %0, ptr %8, align 8
  store ptr %1, ptr %9, align 8
  store ptr %2, ptr %10, align 8
  store i64 %3, ptr %11, align 8
  store ptr %4, ptr %12, align 8
  store ptr %5, ptr %13, align 8
  store ptr %6, ptr %14, align 8
  call void @llvm.lifetime.start.p0(i64 8, ptr %15) #10
  %21 = load ptr, ptr %8, align 8
  %22 = load ptr, ptr %9, align 8
  %23 = getelementptr inbounds nuw %struct.gough_accel, ptr %22, i32 0, i32 2
  %24 = load i32, ptr %23, align 4
  %25 = zext i32 %24 to i64
  %26 = getelementptr inbounds nuw i8, ptr %21, i64 %25
  store ptr %26, ptr %15, align 8
  call void @llvm.lifetime.start.p0(i64 8, ptr %16) #10
  %27 = load ptr, ptr %9, align 8
  %28 = getelementptr inbounds nuw %struct.gough_accel, ptr %27, i32 0, i32 1
  %29 = load i8, ptr %28, align 16
  %30 = zext i8 %29 to i64
  store i64 %30, ptr %16, align 8
  br label %31

31:                                               ; preds = %7
  br label %32

32:                                               ; preds = %31
  br label %33

33:                                               ; preds = %32
  %34 = load ptr, ptr %13, align 8
  %35 = load ptr, ptr %12, align 8
  %36 = ptrtoint ptr %34 to i64
  %37 = ptrtoint ptr %35 to i64
  %38 = sub i64 %36, %37
  %39 = load i64, ptr %16, align 8
  %40 = mul nsw i64 2, %39
  %41 = icmp sle i64 %38, %40
  br i1 %41, label %42, label %62

42:                                               ; preds = %33
  br label %43

43:                                               ; preds = %47, %42
  %44 = load ptr, ptr %12, align 8
  %45 = load ptr, ptr %13, align 8
  %46 = icmp ult ptr %44, %45
  br i1 %46, label %47, label %61

47:                                               ; preds = %43
  call void @llvm.lifetime.start.p0(i64 8, ptr %17) #10
  %48 = load ptr, ptr %12, align 8
  %49 = load ptr, ptr %10, align 8
  %50 = ptrtoint ptr %48 to i64
  %51 = ptrtoint ptr %49 to i64
  %52 = sub i64 %50, %51
  %53 = load i64, ptr %11, align 8
  %54 = add i64 %52, %53
  store i64 %54, ptr %17, align 8
  %55 = load ptr, ptr %8, align 8
  %56 = load ptr, ptr %15, align 8
  %57 = load i64, ptr %17, align 8
  %58 = load ptr, ptr %14, align 8
  call void @run_prog_i(ptr noundef %55, ptr noundef %56, i64 noundef %57, ptr noundef %58)
  %59 = load ptr, ptr %12, align 8
  %60 = getelementptr inbounds nuw i8, ptr %59, i32 1
  store ptr %60, ptr %12, align 8
  call void @llvm.lifetime.end.p0(i64 8, ptr %17) #10
  br label %43

61:                                               ; preds = %43
  br label %111

62:                                               ; preds = %33
  call void @llvm.lifetime.start.p0(i64 8, ptr %18) #10
  %63 = load ptr, ptr %12, align 8
  %64 = load ptr, ptr %10, align 8
  %65 = ptrtoint ptr %63 to i64
  %66 = ptrtoint ptr %64 to i64
  %67 = sub i64 %65, %66
  %68 = load i64, ptr %11, align 8
  %69 = add i64 %67, %68
  store i64 %69, ptr %18, align 8
  call void @llvm.lifetime.start.p0(i64 8, ptr %19) #10
  store i64 0, ptr %19, align 8
  br label %70

70:                                               ; preds = %82, %62
  %71 = load i64, ptr %19, align 8
  %72 = load i64, ptr %16, align 8
  %73 = icmp slt i64 %71, %72
  br i1 %73, label %75, label %74

74:                                               ; preds = %70
  call void @llvm.lifetime.end.p0(i64 8, ptr %19) #10
  br label %85

75:                                               ; preds = %70
  %76 = load ptr, ptr %8, align 8
  %77 = load ptr, ptr %15, align 8
  %78 = load i64, ptr %18, align 8
  %79 = load i64, ptr %19, align 8
  %80 = add i64 %78, %79
  %81 = load ptr, ptr %14, align 8
  call void @run_prog_i(ptr noundef %76, ptr noundef %77, i64 noundef %80, ptr noundef %81)
  br label %82

82:                                               ; preds = %75
  %83 = load i64, ptr %19, align 8
  %84 = add nsw i64 %83, 1
  store i64 %84, ptr %19, align 8
  br label %70

85:                                               ; preds = %74
  %86 = load ptr, ptr %13, align 8
  %87 = load ptr, ptr %10, align 8
  %88 = ptrtoint ptr %86 to i64
  %89 = ptrtoint ptr %87 to i64
  %90 = sub i64 %88, %89
  %91 = load i64, ptr %11, align 8
  %92 = add i64 %90, %91
  %93 = load i64, ptr %16, align 8
  %94 = sub i64 %92, %93
  store i64 %94, ptr %18, align 8
  call void @llvm.lifetime.start.p0(i64 8, ptr %20) #10
  store i64 0, ptr %20, align 8
  br label %95

95:                                               ; preds = %107, %85
  %96 = load i64, ptr %20, align 8
  %97 = load i64, ptr %16, align 8
  %98 = icmp slt i64 %96, %97
  br i1 %98, label %100, label %99

99:                                               ; preds = %95
  call void @llvm.lifetime.end.p0(i64 8, ptr %20) #10
  br label %110

100:                                              ; preds = %95
  %101 = load ptr, ptr %8, align 8
  %102 = load ptr, ptr %15, align 8
  %103 = load i64, ptr %18, align 8
  %104 = load i64, ptr %20, align 8
  %105 = add i64 %103, %104
  %106 = load ptr, ptr %14, align 8
  call void @run_prog_i(ptr noundef %101, ptr noundef %102, i64 noundef %105, ptr noundef %106)
  br label %107

107:                                              ; preds = %100
  %108 = load i64, ptr %20, align 8
  %109 = add nsw i64 %108, 1
  store i64 %109, ptr %20, align 8
  br label %95

110:                                              ; preds = %99
  call void @llvm.lifetime.end.p0(i64 8, ptr %18) #10
  br label %111

111:                                              ; preds = %110, %61
  call void @llvm.lifetime.end.p0(i64 8, ptr %16) #10
  call void @llvm.lifetime.end.p0(i64 8, ptr %15) #10
  ret void
}