; Function Attrs: nofree noinline norecurse nosync nounwind memory(argmem: readwrite) uwtable
define internal fastcc void @run_accel_prog(ptr noundef readonly captures(none) %0, i8 %.80.val, i32 %.84.val, ptr noundef %1, i64 noundef %2, ptr noundef %3, ptr noundef %4, ptr noundef captures(none) %5) unnamed_addr #9 {
  %7 = zext i32 %.84.val to i64
  %8 = getelementptr inbounds nuw i8, ptr %0, i64 %7
  %9 = zext i8 %.80.val to i64
  %10 = ptrtoint ptr %4 to i64
  %11 = ptrtoint ptr %3 to i64
  %12 = sub i64 %10, %11
  %13 = shl nuw nsw i64 %9, 1
  %.not = icmp sgt i64 %12, %13
  br i1 %.not, label %52, label %.preheader20

.preheader20:                                     ; preds = %6
  %14 = icmp ult ptr %3, %4
  br i1 %14, label %.lr.ph, label %.loopexit

.lr.ph:                                           ; preds = %.preheader20
  %15 = ptrtoint ptr %1 to i64
  br label %16

16:                                               ; preds = %.lr.ph, %run_prog_i.exit
  %.03922 = phi ptr [ %3, %.lr.ph ], [ %50, %run_prog_i.exit ]
  %17 = ptrtoint ptr %.03922 to i64
  %18 = add i64 %2, %17
  br label %19

19:                                               ; preds = %48, %16
  %.030.i = phi ptr [ %8, %16 ], [ %49, %48 ]
  %20 = getelementptr inbounds nuw i8, ptr %.030.i, i64 4
  %21 = load i32, ptr %20, align 4
  %22 = getelementptr inbounds nuw i8, ptr %.030.i, i64 8
  %23 = load i32, ptr %22, align 4
  %24 = load i32, ptr %.030.i, align 4
  switch i32 %24, label %run_prog_i.exit [
    i32 3, label %37
    i32 1, label %25
    i32 2, label %31
  ]

25:                                               ; preds = %19
  %26 = zext i32 %23 to i64
  %27 = getelementptr inbounds nuw [1 x i64], ptr %5, i64 0, i64 %26
  %28 = load i64, ptr %27, align 8
  %29 = zext i32 %21 to i64
  %30 = getelementptr inbounds nuw [1 x i64], ptr %5, i64 0, i64 %29
  store i64 %28, ptr %30, align 8
  br label %48

31:                                               ; preds = %19
  %32 = zext i32 %23 to i64
  %33 = add i64 %15, %32
  %34 = sub i64 %18, %33
  %35 = zext i32 %21 to i64
  %36 = getelementptr inbounds nuw [1 x i64], ptr %5, i64 0, i64 %35
  store i64 %34, ptr %36, align 8
  br label %48

37:                                               ; preds = %19
  %38 = zext i32 %23 to i64
  %39 = getelementptr inbounds nuw [1 x i64], ptr %5, i64 0, i64 %38
  %40 = load i64, ptr %39, align 8
  %41 = icmp eq i64 %40, -1
  %42 = zext i32 %21 to i64
  %43 = getelementptr inbounds nuw [1 x i64], ptr %5, i64 0, i64 %42
  br i1 %41, label %44, label %45

44:                                               ; preds = %37
  store i64 -1, ptr %43, align 8
  br label %48

45:                                               ; preds = %37
  %46 = load i64, ptr %43, align 8
  %.not.i = icmp eq i64 %46, -1
  br i1 %.not.i, label %48, label %47

47:                                               ; preds = %45
  %..i = tail call i64 @llvm.umin.i64(i64 %46, i64 %40)
  store i64 %..i, ptr %43, align 8
  br label %48

48:                                               ; preds = %25, %31, %44, %45, %47
  %49 = getelementptr inbounds nuw i8, ptr %.030.i, i64 12
  br label %19

run_prog_i.exit:                                  ; preds = %19
  %50 = getelementptr inbounds nuw i8, ptr %.03922, i64 1
  %51 = icmp ult ptr %50, %4
  br i1 %51, label %16, label %.loopexit

52:                                               ; preds = %6
  %53 = ptrtoint ptr %1 to i64
  %.not33 = icmp eq i8 %.80.val, 0
  br i1 %.not33, label %.loopexit, label %.lr.ph25

.lr.ph25:                                         ; preds = %52
  %54 = sub i64 %2, %53
  %invariant.op26 = add i64 %54, %11
  br label %57

.preheader.lr.ph:                                 ; preds = %run_prog_i.exit47
  %55 = add i64 %2, %10
  %56 = add i64 %53, %9
  br label %.preheader

57:                                               ; preds = %.lr.ph25, %run_prog_i.exit47
  %.03824 = phi i64 [ 0, %.lr.ph25 ], [ %88, %run_prog_i.exit47 ]
  %.reass.reass27 = add i64 %.03824, %invariant.op26
  br label %58

58:                                               ; preds = %86, %57
  %.030.i41 = phi ptr [ %8, %57 ], [ %87, %86 ]
  %59 = getelementptr inbounds nuw i8, ptr %.030.i41, i64 4
  %60 = load i32, ptr %59, align 4
  %61 = getelementptr inbounds nuw i8, ptr %.030.i41, i64 8
  %62 = load i32, ptr %61, align 4
  %63 = load i32, ptr %.030.i41, align 4
  switch i32 %63, label %run_prog_i.exit47 [
    i32 3, label %75
    i32 1, label %64
    i32 2, label %70
  ]

64:                                               ; preds = %58
  %65 = zext i32 %62 to i64
  %66 = getelementptr inbounds nuw [1 x i64], ptr %5, i64 0, i64 %65
  %67 = load i64, ptr %66, align 8
  %68 = zext i32 %60 to i64
  %69 = getelementptr inbounds nuw [1 x i64], ptr %5, i64 0, i64 %68
  store i64 %67, ptr %69, align 8
  br label %86

70:                                               ; preds = %58
  %71 = zext i32 %62 to i64
  %72 = sub i64 %.reass.reass27, %71
  %73 = zext i32 %60 to i64
  %74 = getelementptr inbounds nuw [1 x i64], ptr %5, i64 0, i64 %73
  store i64 %72, ptr %74, align 8
  br label %86

75:                                               ; preds = %58
  %76 = zext i32 %62 to i64
  %77 = getelementptr inbounds nuw [1 x i64], ptr %5, i64 0, i64 %76
  %78 = load i64, ptr %77, align 8
  %79 = icmp eq i64 %78, -1
  %80 = zext i32 %60 to i64
  %81 = getelementptr inbounds nuw [1 x i64], ptr %5, i64 0, i64 %80
  br i1 %79, label %82, label %83

82:                                               ; preds = %75
  store i64 -1, ptr %81, align 8
  br label %86

83:                                               ; preds = %75
  %84 = load i64, ptr %81, align 8
  %.not.i45 = icmp eq i64 %84, -1
  br i1 %.not.i45, label %86, label %85

85:                                               ; preds = %83
  %..i46 = tail call i64 @llvm.umin.i64(i64 %84, i64 %78)
  store i64 %..i46, ptr %81, align 8
  br label %86

86:                                               ; preds = %64, %70, %82, %83, %85
  %87 = getelementptr inbounds nuw i8, ptr %.030.i41, i64 12
  br label %58

run_prog_i.exit47:                                ; preds = %58
  %88 = add nuw nsw i64 %.03824, 1
  %exitcond.not = icmp eq i64 %88, %9
  br i1 %exitcond.not, label %.preheader.lr.ph, label %57

.preheader:                                       ; preds = %.preheader.lr.ph, %run_prog_i.exit54
  %.031 = phi i64 [ 0, %.preheader.lr.ph ], [ %121, %run_prog_i.exit54 ]
  %89 = add i64 %55, %.031
  br label %90

90:                                               ; preds = %.preheader, %119
  %.030.i48 = phi ptr [ %120, %119 ], [ %8, %.preheader ]
  %91 = getelementptr inbounds nuw i8, ptr %.030.i48, i64 4
  %92 = load i32, ptr %91, align 4
  %93 = getelementptr inbounds nuw i8, ptr %.030.i48, i64 8
  %94 = load i32, ptr %93, align 4
  %95 = load i32, ptr %.030.i48, align 4
  switch i32 %95, label %run_prog_i.exit54 [
    i32 3, label %108
    i32 1, label %96
    i32 2, label %102
  ]

96:                                               ; preds = %90
  %97 = zext i32 %94 to i64
  %98 = getelementptr inbounds nuw [1 x i64], ptr %5, i64 0, i64 %97
  %99 = load i64, ptr %98, align 8
  %100 = zext i32 %92 to i64
  %101 = getelementptr inbounds nuw [1 x i64], ptr %5, i64 0, i64 %100
  store i64 %99, ptr %101, align 8
  br label %119

102:                                              ; preds = %90
  %103 = zext i32 %94 to i64
  %104 = add i64 %56, %103
  %105 = sub i64 %89, %104
  %106 = zext i32 %92 to i64
  %107 = getelementptr inbounds nuw [1 x i64], ptr %5, i64 0, i64 %106
  store i64 %105, ptr %107, align 8
  br label %119

108:                                              ; preds = %90
  %109 = zext i32 %94 to i64
  %110 = getelementptr inbounds nuw [1 x i64], ptr %5, i64 0, i64 %109
  %111 = load i64, ptr %110, align 8
  %112 = icmp eq i64 %111, -1
  %113 = zext i32 %92 to i64
  %114 = getelementptr inbounds nuw [1 x i64], ptr %5, i64 0, i64 %113
  br i1 %112, label %115, label %116

115:                                              ; preds = %108
  store i64 -1, ptr %114, align 8
  br label %119

116:                                              ; preds = %108
  %117 = load i64, ptr %114, align 8
  %.not.i52 = icmp eq i64 %117, -1
  br i1 %.not.i52, label %119, label %118

118:                                              ; preds = %116
  %..i53 = tail call i64 @llvm.umin.i64(i64 %117, i64 %111)
  store i64 %..i53, ptr %114, align 8
  br label %119

119:                                              ; preds = %96, %102, %115, %116, %118
  %120 = getelementptr inbounds nuw i8, ptr %.030.i48, i64 12
  br label %90

run_prog_i.exit54:                                ; preds = %90
  %121 = add nuw nsw i64 %.031, 1
  %exitcond36.not = icmp eq i64 %121, %9
  br i1 %exitcond36.not, label %.loopexit, label %.preheader

.loopexit:                                        ; preds = %run_prog_i.exit, %run_prog_i.exit54, %52, %.preheader20
  ret void
}